target datalayout = "e-m:e-p270:32:32-p271:32:32-p272:64:64-i64:64-i128:128-f80:128-n8:16:32:64-S128"
target triple = "x86_64-pc-linux-gnu"

%struct.SDL_Camera = type { ptr, ptr, i32, %struct.SDL_AtomicInt, ptr, ptr, ptr, ptr, i32, %struct.SDL_CameraSpec, %struct.SDL_CameraSpec, i32, ptr, i32, i64, i64, ptr, ptr, [8 x %struct.SurfaceList], %struct.SurfaceList, %struct.SurfaceList, %struct.SurfaceList, ptr, i32, i8, %struct.SDL_AtomicInt, %struct.SDL_AtomicInt, ptr, i32, i32, ptr }
%struct.SDL_CameraSpec = type { i32, i32, i32, i32, i32, i32 }
%struct.SurfaceList = type { ptr, i64, ptr }
%struct.SDL_AtomicInt = type { i32 }
%struct.SDL_PrivateCameraData = type { i32, i32, i32, ptr, i32 }
%struct.buffer = type { ptr, i64, i32 }
%struct.timeval = type { i64, i64 }
%struct.v4l2_buffer = type { i32, i32, i32, i32, i32, %struct.timeval, %struct.v4l2_timecode, i32, i32, %union.anon.5, i32, i32, %union.anon.6 }
%struct.v4l2_timecode = type { i32, i32, i8, i8, i8, i8, [4 x i8] }
%union.anon.5 = type { i64 }
%union.anon.6 = type { i32 }
%struct.SDL_Surface = type { i32, i32, i32, i32, i32, ptr, i32, ptr, i32, i32, ptr, i32, ptr, i32, ptr, i32, %struct.SDL_Rect, %struct.SDL_BlitMap }
%struct.SDL_Rect = type { i32, i32, i32, i32 }
%struct.SDL_BlitMap = type { i32, ptr, ptr, %struct.SDL_BlitInfo, i32, i32 }
%struct.SDL_BlitInfo = type { ptr, ptr, i32, i32, i32, i32, ptr, ptr, i32, i32, i32, i32, ptr, ptr, ptr, ptr, ptr, ptr, i32, i32, i8, i8, i8, i8 }

; Function Attrs: nounwind uwtable
define internal i32 @xioctl(i32 noundef %0, i32 noundef %1, ptr noundef %2) #0 {
  %4 = alloca i32, align 4
  %5 = alloca i32, align 4
  %6 = alloca ptr, align 8
  %7 = alloca i32, align 4
  store i32 %0, ptr %4, align 4
  store i32 %1, ptr %5, align 4
  store ptr %2, ptr %6, align 8
  call void @llvm.lifetime.start.p0(i64 4, ptr %7) #8
  br label %8

8:                                                ; preds = %21, %3
  %9 = load i32, ptr %4, align 4
  %10 = load i32, ptr %5, align 4
  %11 = sext i32 %10 to i64
  %12 = load ptr, ptr %6, align 8
  %13 = call i32 (i32, i64, ...) @ioctl(i32 noundef %9, i64 noundef %11, ptr noundef %12) #8
  store i32 %13, ptr %7, align 4
  br label %14

14:                                               ; preds = %8
  %15 = load i32, ptr %7, align 4
  %16 = icmp eq i32 %15, -1
  br i1 %16, label %17, label %21

17:                                               ; preds = %14
  %18 = call ptr @__errno_location() #9
  %19 = load i32, ptr %18, align 4
  %20 = icmp eq i32 %19, 4
  br label %21

21:                                               ; preds = %17, %14
  %22 = phi i1 [ false, %14 ], [ %20, %17 ]
  br i1 %22, label %8, label %23, !llvm.loop !19

23:                                               ; preds = %21
  %24 = load i32, ptr %7, align 4
  call void @llvm.lifetime.end.p0(i64 4, ptr %7) #8
  ret i32 %24
}

; Function Attrs: nounwind uwtable
define internal void @V4L2_ReleaseFrame(ptr noundef %0, ptr noundef %1) #0 {
  %3 = alloca ptr, align 8
  %4 = alloca ptr, align 8
  %5 = alloca %struct.v4l2_buffer, align 8
  %6 = alloca i32, align 4
  %7 = alloca i32, align 4
  %8 = alloca i32, align 4
  %9 = alloca i32, align 4
  store ptr %0, ptr %3, align 8
  store ptr %1, ptr %4, align 8
  call void @llvm.lifetime.start.p0(i64 88, ptr %5) #8
  call void @llvm.lifetime.start.p0(i64 4, ptr %6) #8
  %10 = load ptr, ptr %3, align 8
  %11 = getelementptr inbounds nuw %struct.SDL_Camera, ptr %10, i32 0, i32 30
  %12 = load ptr, ptr %11, align 8
  %13 = getelementptr inbounds nuw %struct.SDL_PrivateCameraData, ptr %12, i32 0, i32 0
  %14 = load i32, ptr %13, align 8
  store i32 %14, ptr %6, align 4
  call void @llvm.lifetime.start.p0(i64 4, ptr %7) #8
  %15 = load ptr, ptr %3, align 8
  %16 = getelementptr inbounds nuw %struct.SDL_Camera, ptr %15, i32 0, i32 30
  %17 = load ptr, ptr %16, align 8
  %18 = getelementptr inbounds nuw %struct.SDL_PrivateCameraData, ptr %17, i32 0, i32 1
  %19 = load i32, ptr %18, align 4
  store i32 %19, ptr %7, align 4
  call void @llvm.lifetime.start.p0(i64 4, ptr %8) #8
  store i32 0, ptr %8, align 4
  br label %20

20:                                               ; preds = %45, %2
  %21 = load i32, ptr %8, align 4
  %22 = load ptr, ptr %3, align 8
  %23 = getelementptr inbounds nuw %struct.SDL_Camera, ptr %22, i32 0, i32 30
  %24 = load ptr, ptr %23, align 8
  %25 = getelementptr inbounds nuw %struct.SDL_PrivateCameraData, ptr %24, i32 0, i32 2
  %26 = load i32, ptr %25, align 8
  %27 = icmp slt i32 %21, %26
  br i1 %27, label %28, label %48

28:                                               ; preds = %20
  %29 = load ptr, ptr %4, align 8
  %30 = getelementptr inbounds nuw %struct.SDL_Surface, ptr %29, i32 0, i32 5
  %31 = load ptr, ptr %30, align 8
  %32 = load ptr, ptr %3, align 8
  %33 = getelementptr inbounds nuw %struct.SDL_Camera, ptr %32, i32 0, i32 30
  %34 = load ptr, ptr %33, align 8
  %35 = getelementptr inbounds nuw %struct.SDL_PrivateCameraData, ptr %34, i32 0, i32 3
  %36 = load ptr, ptr %35, align 8
  %37 = load i32, ptr %8, align 4
  %38 = sext i32 %37 to i64
  %39 = getelementptr inbounds %struct.buffer, ptr %36, i64 %38
  %40 = getelementptr inbounds nuw %struct.buffer, ptr %39, i32 0, i32 0
  %41 = load ptr, ptr %40, align 8
  %42 = icmp eq ptr %31, %41
  br i1 %42, label %43, label %44

43:                                               ; preds = %28
  br label %48

44:                                               ; preds = %28
  br label %45

45:                                               ; preds = %44
  %46 = load i32, ptr %8, align 4
  %47 = add nsw i32 %46, 1
  store i32 %47, ptr %8, align 4
  br label %20, !llvm.loop !12

48:                                               ; preds = %43, %20
  %49 = load i32, ptr %8, align 4
  %50 = load ptr, ptr %3, align 8
  %51 = getelementptr inbounds nuw %struct.SDL_Camera, ptr %50, i32 0, i32 30
  %52 = load ptr, ptr %51, align 8
  %53 = getelementptr inbounds nuw %struct.SDL_PrivateCameraData, ptr %52, i32 0, i32 2
  %54 = load i32, ptr %53, align 8
  %55 = icmp sge i32 %49, %54
  br i1 %55, label %56, label %57

56:                                               ; preds = %48
  store i32 1, ptr %9, align 4
  br label %119

57:                                               ; preds = %48
  %58 = load i32, ptr %7, align 4
  switch i32 %58, label %118 [
    i32 1, label %118
    i32 2, label %59
    i32 3, label %78
    i32 0, label %114
  ]

59:                                               ; preds = %57
  call void @llvm.memset.p0.i64(ptr align 8 %5, i8 0, i64 88, i1 false)
  %60 = getelementptr inbounds nuw %struct.v4l2_buffer, ptr %5, i32 0, i32 1
  store i32 1, ptr %60, align 4
  %61 = getelementptr inbounds nuw %struct.v4l2_buffer, ptr %5, i32 0, i32 8
  store i32 1, ptr %61, align 4
  %62 = load i32, ptr %8, align 4
  %63 = getelementptr inbounds nuw %struct.v4l2_buffer, ptr %5, i32 0, i32 0
  store i32 %62, ptr %63, align 8
  %64 = load i32, ptr %6, align 4
  %65 = call i32 @xioctl(i32 noundef %64, i32 noundef -1067952625, ptr noundef %5)
  %66 = icmp eq i32 %65, -1
  br i1 %66, label %67, label %68

67:                                               ; preds = %59
  store i32 1, ptr %9, align 4
  br label %119

68:                                               ; preds = %59
  %69 = load ptr, ptr %3, align 8
  %70 = getelementptr inbounds nuw %struct.SDL_Camera, ptr %69, i32 0, i32 30
  %71 = load ptr, ptr %70, align 8
  %72 = getelementptr inbounds nuw %struct.SDL_PrivateCameraData, ptr %71, i32 0, i32 3
  %73 = load ptr, ptr %72, align 8
  %74 = load i32, ptr %8, align 4
  %75 = sext i32 %74 to i64
  %76 = getelementptr inbounds %struct.buffer, ptr %73, i64 %75
  %77 = getelementptr inbounds nuw %struct.buffer, ptr %76, i32 0, i32 2
  store i32 0, ptr %77, align 8
  br label %118

78:                                               ; preds = %57
  call void @llvm.memset.p0.i64(ptr align 8 %5, i8 0, i64 88, i1 false)
  %79 = getelementptr inbounds nuw %struct.v4l2_buffer, ptr %5, i32 0, i32 1
  store i32 1, ptr %79, align 4
  %80 = getelementptr inbounds nuw %struct.v4l2_buffer, ptr %5, i32 0, i32 8
  store i32 2, ptr %80, align 4
  %81 = load i32, ptr %8, align 4
  %82 = getelementptr inbounds nuw %struct.v4l2_buffer, ptr %5, i32 0, i32 0
  store i32 %81, ptr %82, align 8
  %83 = load ptr, ptr %4, align 8
  %84 = getelementptr inbounds nuw %struct.SDL_Surface, ptr %83, i32 0, i32 5
  %85 = load ptr, ptr %84, align 8
  %86 = ptrtoint ptr %85 to i64
  %87 = getelementptr inbounds nuw %struct.v4l2_buffer, ptr %5, i32 0, i32 9
  store i64 %86, ptr %87, align 8
  %88 = load ptr, ptr %3, align 8
  %89 = getelementptr inbounds nuw %struct.SDL_Camera, ptr %88, i32 0, i32 30
  %90 = load ptr, ptr %89, align 8
  %91 = getelementptr inbounds nuw %struct.SDL_PrivateCameraData, ptr %90, i32 0, i32 3
  %92 = load ptr, ptr %91, align 8
  %93 = load i32, ptr %8, align 4
  %94 = sext i32 %93 to i64
  %95 = getelementptr inbounds %struct.buffer, ptr %92, i64 %94
  %96 = getelementptr inbounds nuw %struct.buffer, ptr %95, i32 0, i32 1
  %97 = load i64, ptr %96, align 8
  %98 = trunc i64 %97 to i32
  %99 = getelementptr inbounds nuw %struct.v4l2_buffer, ptr %5, i32 0, i32 10
  store i32 %98, ptr %99, align 8
  %100 = load i32, ptr %6, align 4
  %101 = call i32 @xioctl(i32 noundef %100, i32 noundef -1067952625, ptr noundef %5)
  %102 = icmp eq i32 %101, -1
  br i1 %102, label %103, label %104

103:                                              ; preds = %78
  store i32 1, ptr %9, align 4
  br label %119

104:                                              ; preds = %78
  %105 = load ptr, ptr %3, align 8
  %106 = getelementptr inbounds nuw %struct.SDL_Camera, ptr %105, i32 0, i32 30
  %107 = load ptr, ptr %106, align 8
  %108 = getelementptr inbounds nuw %struct.SDL_PrivateCameraData, ptr %107, i32 0, i32 3
  %109 = load ptr, ptr %108, align 8
  %110 = load i32, ptr %8, align 4
  %111 = sext i32 %110 to i64
  %112 = getelementptr inbounds %struct.buffer, ptr %109, i64 %111
  %113 = getelementptr inbounds nuw %struct.buffer, ptr %112, i32 0, i32 2
  store i32 0, ptr %113, align 8
  br label %118

114:                                              ; preds = %57
  br label %115

115:                                              ; preds = %114
  br label %116

116:                                              ; preds = %115
  br label %117

117:                                              ; preds = %116
  br label %118

118:                                              ; preds = %57, %117, %104, %68, %57
  store i32 0, ptr %9, align 4
  br label %119

119:                                              ; preds = %118, %103, %67, %56
  call void @llvm.lifetime.end.p0(i64 4, ptr %8) #8
  call void @llvm.lifetime.end.p0(i64 4, ptr %7) #8
  call void @llvm.lifetime.end.p0(i64 4, ptr %6) #8
  call void @llvm.lifetime.end.p0(i64 88, ptr %5) #8
  %120 = load i32, ptr %9, align 4
  switch i32 %120, label %122 [
    i32 0, label %121
    i32 1, label %121
  ]

121:                                              ; preds = %119, %119
  ret void

122:                                              ; preds = %119
  unreachable
}