; Function Attrs: nounwind uwtable
define internal void @V4L2_ReleaseFrame(ptr noundef readonly captures(none) %0, ptr noundef readonly captures(none) %1) #1 {
  %3 = alloca %struct.v4l2_buffer, align 8
  call void @llvm.lifetime.start.p0(i64 88, ptr nonnull %3) #11
  %4 = getelementptr inbounds nuw i8, ptr %0, i64 464
  %5 = load ptr, ptr %4, align 8
  %6 = load i32, ptr %5, align 8
  %7 = getelementptr inbounds nuw i8, ptr %5, i64 4
  %8 = load i32, ptr %7, align 4
  %9 = getelementptr inbounds nuw i8, ptr %5, i64 8
  %10 = load i32, ptr %9, align 8
  %11 = icmp sgt i32 %10, 0
  br i1 %11, label %.lr.ph, label %xioctl.exit.thread

.lr.ph:                                           ; preds = %2
  %12 = getelementptr inbounds nuw i8, ptr %1, i64 24
  %13 = load ptr, ptr %12, align 8
  %14 = getelementptr inbounds nuw i8, ptr %5, i64 16
  %15 = load ptr, ptr %14, align 8
  %wide.trip.count = zext nneg i32 %10 to i64
  br label %16

16:                                               ; preds = %.lr.ph, %20
  %indvars.iv = phi i64 [ 0, %.lr.ph ], [ %indvars.iv.next, %20 ]
  %17 = getelementptr inbounds nuw %struct.buffer, ptr %15, i64 %indvars.iv
  %18 = load ptr, ptr %17, align 8
  %19 = icmp eq ptr %13, %18
  br i1 %19, label %21, label %20

20:                                               ; preds = %16
  %indvars.iv.next = add nuw nsw i64 %indvars.iv, 1
  %exitcond.not = icmp eq i64 %indvars.iv.next, %wide.trip.count
  br i1 %exitcond.not, label %xioctl.exit.thread, label %16, !llvm.loop !10

21:                                               ; preds = %16
  %22 = trunc nuw nsw i64 %indvars.iv to i32
  switch i32 %8, label %xioctl.exit.thread [
    i32 3, label %39
    i32 2, label %23
  ]

23:                                               ; preds = %21
  %24 = getelementptr inbounds nuw i8, ptr %3, i64 8
  call void @llvm.memset.p0.i64(ptr noundef nonnull align 8 dereferenceable(80) %24, i8 0, i64 80, i1 false)
  %25 = getelementptr inbounds nuw i8, ptr %3, i64 4
  store i32 1, ptr %25, align 4
  %26 = getelementptr inbounds nuw i8, ptr %3, i64 60
  store i32 1, ptr %26, align 4
  store i32 %22, ptr %3, align 8
  br label %27

27:                                               ; preds = %30, %23
  %28 = call i32 (i32, i64, ...) @ioctl(i32 noundef %6, i64 noundef -1067952625, ptr noundef nonnull %3) #11
  %29 = icmp eq i32 %28, -1
  br i1 %29, label %30, label %xioctl.exit

30:                                               ; preds = %27
  %31 = tail call ptr @__errno_location() #12
  %32 = load i32, ptr %31, align 4
  %33 = icmp eq i32 %32, 4
  br i1 %33, label %27, label %xioctl.exit.thread, !llvm.loop !5

xioctl.exit:                                      ; preds = %27
  %34 = load ptr, ptr %4, align 8
  %35 = getelementptr inbounds nuw i8, ptr %34, i64 16
  %36 = load ptr, ptr %35, align 8
  %37 = and i64 %indvars.iv, 4294967295
  %38 = getelementptr inbounds nuw %struct.buffer, ptr %36, i64 %37, i32 2
  store i32 0, ptr %38, align 8
  br label %xioctl.exit.thread

39:                                               ; preds = %21
  %40 = getelementptr inbounds nuw i8, ptr %3, i64 8
  call void @llvm.memset.p0.i64(ptr noundef nonnull align 8 dereferenceable(80) %40, i8 0, i64 80, i1 false)
  %41 = getelementptr inbounds nuw i8, ptr %3, i64 4
  store i32 1, ptr %41, align 4
  %42 = getelementptr inbounds nuw i8, ptr %3, i64 60
  store i32 2, ptr %42, align 4
  store i32 %22, ptr %3, align 8
  %43 = ptrtoint ptr %13 to i64
  %44 = getelementptr inbounds nuw i8, ptr %3, i64 64
  store i64 %43, ptr %44, align 8
  %45 = and i64 %indvars.iv, 4294967295
  %46 = getelementptr inbounds nuw %struct.buffer, ptr %15, i64 %45, i32 1
  %47 = load i64, ptr %46, align 8
  %48 = trunc i64 %47 to i32
  %49 = getelementptr inbounds nuw i8, ptr %3, i64 72
  store i32 %48, ptr %49, align 8
  br label %50

50:                                               ; preds = %53, %39
  %51 = call i32 (i32, i64, ...) @ioctl(i32 noundef %6, i64 noundef -1067952625, ptr noundef nonnull %3) #11
  %52 = icmp eq i32 %51, -1
  br i1 %52, label %53, label %xioctl.exit21

53:                                               ; preds = %50
  %54 = tail call ptr @__errno_location() #12
  %55 = load i32, ptr %54, align 4
  %56 = icmp eq i32 %55, 4
  br i1 %56, label %50, label %xioctl.exit.thread, !llvm.loop !5

xioctl.exit21:                                    ; preds = %50
  %57 = load ptr, ptr %4, align 8
  %58 = getelementptr inbounds nuw i8, ptr %57, i64 16
  %59 = load ptr, ptr %58, align 8
  %60 = getelementptr inbounds nuw %struct.buffer, ptr %59, i64 %45, i32 2
  store i32 0, ptr %60, align 8
  br label %xioctl.exit.thread

xioctl.exit.thread:                               ; preds = %20, %30, %53, %2, %21, %xioctl.exit, %xioctl.exit21
  call void @llvm.lifetime.end.p0(i64 88, ptr nonnull %3) #11
  ret void
}